; Function Attrs: nounwind uwtable
define dso_local i64 @pg_lsn_pli(ptr noundef readonly captures(none) %0) local_unnamed_addr #4 {
  %2 = alloca [32 x i8], align 16
  %3 = getelementptr inbounds nuw i8, ptr %0, i64 32
  %4 = load i64, ptr %3, align 8
  %5 = getelementptr inbounds nuw i8, ptr %0, i64 48
  %6 = load i64, ptr %5, align 8
  %7 = inttoptr i64 %6 to ptr
  %8 = tail call ptr @pg_detoast_datum(ptr noundef %7) #13
  call void @llvm.lifetime.start.p0(i64 32, ptr nonnull %2) #13
  %9 = tail call zeroext i1 @numeric_is_nan(ptr noundef %8) #13
  br i1 %9, label %10, label %14

10:                                               ; preds = %1
  %11 = tail call zeroext i1 @errstart_cold(i32 noundef 21, ptr noundef null) #14
  tail call void @llvm.assume(i1 %11)
  %12 = tail call i32 @errcode(i32 noundef 1088) #13
  %13 = tail call i32 (ptr, ...) @errmsg(ptr noundef nonnull @.str.7) #13
  tail call void @errfinish(ptr noundef nonnull @.str.3, i32 noundef 262, ptr noundef nonnull @__func__.pg_lsn_pli) #13
  unreachable

14:                                               ; preds = %1
  %15 = call i32 (ptr, i64, ptr, ...) @pg_snprintf(ptr noundef nonnull %2, i64 noundef 32, ptr noundef nonnull @.str.6, i64 noundef %4) #13
  %16 = ptrtoint ptr %2 to i64
  %17 = call i64 @DirectFunctionCall3Coll(ptr noundef nonnull @numeric_in, i32 noundef 0, i64 noundef %16, i64 noundef 0, i64 noundef -1) #13
  %18 = ptrtoint ptr %8 to i64
  %19 = call i64 @DirectFunctionCall2Coll(ptr noundef nonnull @numeric_add, i32 noundef 0, i64 noundef %17, i64 noundef %18) #13
  %20 = call i64 @DirectFunctionCall1Coll(ptr noundef nonnull @numeric_pg_lsn, i32 noundef 0, i64 noundef %19) #13
  call void @llvm.lifetime.end.p0(i64 32, ptr nonnull %2) #13
  ret i64 %20
}